; ModuleID = '22/403.c'
source_filename = "22/403.c"
target datalayout = "e-m:e-p270:32:32-p271:32:32-p272:64:64-i64:64-f80:128-n8:16:32:64-S128"
target triple = "x86_64-pc-linux-gnu"

@.str = private unnamed_addr constant [3 x i8] c"%d\00", align 1
@.str.1 = private unnamed_addr constant [3 x i8] c"%c\00", align 1
@.str.2 = private unnamed_addr constant [4 x i8] c"No\0A\00", align 1
@.str.3 = private unnamed_addr constant [4 x i8] c"%d\0A\00", align 1

; Function Attrs: noinline nounwind uwtable
define dso_local void @main() #0 {
  %1 = alloca i32, align 4
  %2 = alloca i32, align 4
  %3 = alloca i32, align 4
  %4 = alloca i32, align 4
  %5 = alloca i32, align 4
  %6 = alloca [10000 x i32], align 16
  %7 = alloca [10000 x i8], align 16
  %8 = alloca i8, align 1
  %9 = getelementptr inbounds [10000 x i8], [10000 x i8]* %7, i64 0, i64 0
  store i8 46, i8* %9, align 16
  store i32 0, i32* %1, align 4
  store i32 1, i32* %2, align 4
  br label %10

10:                                               ; preds = %27, %0
  %11 = load i32, i32* %2, align 4
  %12 = sub nsw i32 %11, 1
  %13 = sext i32 %12 to i64
  %14 = getelementptr inbounds [10000 x i8], [10000 x i8]* %7, i64 0, i64 %13
  %15 = load i8, i8* %14, align 1
  store i8 %15, i8* %8, align 1
  %16 = sext i8 %15 to i32
  %17 = icmp ne i32 %16, 10
  br i1 %17, label %18, label %32

18:                                               ; preds = %10
  %19 = load i32, i32* %1, align 4
  %20 = sext i32 %19 to i64
  %21 = getelementptr inbounds [10000 x i32], [10000 x i32]* %6, i64 0, i64 %20
  %22 = call i32 (i8*, ...) @__isoc99_scanf(i8* getelementptr inbounds ([3 x i8], [3 x i8]* @.str, i64 0, i64 0), i32* %21)
  %23 = load i32, i32* %2, align 4
  %24 = sext i32 %23 to i64
  %25 = getelementptr inbounds [10000 x i8], [10000 x i8]* %7, i64 0, i64 %24
  %26 = call i32 (i8*, ...) @__isoc99_scanf(i8* getelementptr inbounds ([3 x i8], [3 x i8]* @.str.1, i64 0, i64 0), i8* %25)
  br label %27

27:                                               ; preds = %18
  %28 = load i32, i32* %1, align 4
  %29 = add nsw i32 %28, 1
  store i32 %29, i32* %1, align 4
  %30 = load i32, i32* %2, align 4
  %31 = add nsw i32 %30, 1
  store i32 %31, i32* %2, align 4
  br label %10

32:                                               ; preds = %10
  %33 = load i32, i32* %1, align 4
  store i32 %33, i32* %3, align 4
  store i32 0, i32* %2, align 4
  br label %34

34:                                               ; preds = %81, %32
  %35 = load i32, i32* %2, align 4
  %36 = load i32, i32* %3, align 4
  %37 = sub nsw i32 %36, 1
  %38 = icmp slt i32 %35, %37
  br i1 %38, label %39, label %84

39:                                               ; preds = %34
  store i32 0, i32* %1, align 4
  br label %40

40:                                               ; preds = %77, %39
  %41 = load i32, i32* %1, align 4
  %42 = load i32, i32* %3, align 4
  %43 = load i32, i32* %2, align 4
  %44 = sub nsw i32 %42, %43
  %45 = sub nsw i32 %44, 1
  %46 = icmp slt i32 %41, %45
  br i1 %46, label %47, label %80

47:                                               ; preds = %40
  %48 = load i32, i32* %1, align 4
  %49 = sext i32 %48 to i64
  %50 = getelementptr inbounds [10000 x i32], [10000 x i32]* %6, i64 0, i64 %49
  %51 = load i32, i32* %50, align 4
  %52 = load i32, i32* %1, align 4
  %53 = add nsw i32 %52, 1
  %54 = sext i32 %53 to i64
  %55 = getelementptr inbounds [10000 x i32], [10000 x i32]* %6, i64 0, i64 %54
  %56 = load i32, i32* %55, align 4
  %57 = icmp sgt i32 %51, %56
  br i1 %57, label %58, label %76

58:                                               ; preds = %47
  %59 = load i32, i32* %1, align 4
  %60 = add nsw i32 %59, 1
  %61 = sext i32 %60 to i64
  %62 = getelementptr inbounds [10000 x i32], [10000 x i32]* %6, i64 0, i64 %61
  %63 = load i32, i32* %62, align 4
  store i32 %63, i32* %4, align 4
  %64 = load i32, i32* %1, align 4
  %65 = sext i32 %64 to i64
  %66 = getelementptr inbounds [10000 x i32], [10000 x i32]* %6, i64 0, i64 %65
  %67 = load i32, i32* %66, align 4
  %68 = load i32, i32* %1, align 4
  %69 = add nsw i32 %68, 1
  %70 = sext i32 %69 to i64
  %71 = getelementptr inbounds [10000 x i32], [10000 x i32]* %6, i64 0, i64 %70
  store i32 %67, i32* %71, align 4
  %72 = load i32, i32* %4, align 4
  %73 = load i32, i32* %1, align 4
  %74 = sext i32 %73 to i64
  %75 = getelementptr inbounds [10000 x i32], [10000 x i32]* %6, i64 0, i64 %74
  store i32 %72, i32* %75, align 4
  br label %76

76:                                               ; preds = %58, %47
  br label %77

77:                                               ; preds = %76
  %78 = load i32, i32* %1, align 4
  %79 = add nsw i32 %78, 1
  store i32 %79, i32* %1, align 4
  br label %40

80:                                               ; preds = %40
  br label %81

81:                                               ; preds = %80
  %82 = load i32, i32* %2, align 4
  %83 = add nsw i32 %82, 1
  store i32 %83, i32* %2, align 4
  br label %34

84:                                               ; preds = %34
  %85 = load i32, i32* %3, align 4
  %86 = sub nsw i32 %85, 2
  store i32 %86, i32* %1, align 4
  store i32 0, i32* %2, align 4
  br label %87

87:                                               ; preds = %110, %84
  %88 = load i32, i32* %1, align 4
  %89 = icmp sge i32 %88, 0
  br i1 %89, label %90, label %113

90:                                               ; preds = %87
  %91 = load i32, i32* %1, align 4
  %92 = sext i32 %91 to i64
  %93 = getelementptr inbounds [10000 x i32], [10000 x i32]* %6, i64 0, i64 %92
  %94 = load i32, i32* %93, align 4
  %95 = load i32, i32* %1, align 4
  %96 = add nsw i32 %95, 1
  %97 = sext i32 %96 to i64
  %98 = getelementptr inbounds [10000 x i32], [10000 x i32]* %6, i64 0, i64 %97
  %99 = load i32, i32* %98, align 4
  %100 = icmp slt i32 %94, %99
  br i1 %100, label %101, label %106

101:                                              ; preds = %90
  %102 = load i32, i32* %1, align 4
  %103 = sext i32 %102 to i64
  %104 = getelementptr inbounds [10000 x i32], [10000 x i32]* %6, i64 0, i64 %103
  %105 = load i32, i32* %104, align 4
  store i32 %105, i32* %5, align 4
  br label %113

106:                                              ; preds = %90
  %107 = load i32, i32* %2, align 4
  %108 = add nsw i32 %107, 1
  store i32 %108, i32* %2, align 4
  br label %109

109:                                              ; preds = %106
  br label %110

110:                                              ; preds = %109
  %111 = load i32, i32* %1, align 4
  %112 = add nsw i32 %111, -1
  store i32 %112, i32* %1, align 4
  br label %87

113:                                              ; preds = %101, %87
  %114 = load i32, i32* %2, align 4
  %115 = load i32, i32* %3, align 4
  %116 = sub nsw i32 %115, 1
  %117 = icmp eq i32 %114, %116
  br i1 %117, label %118, label %120

118:                                              ; preds = %113
  %119 = call i32 (i8*, ...) @printf(i8* getelementptr inbounds ([4 x i8], [4 x i8]* @.str.2, i64 0, i64 0))
  br label %123

120:                                              ; preds = %113
  %121 = load i32, i32* %5, align 4
  %122 = call i32 (i8*, ...) @printf(i8* getelementptr inbounds ([4 x i8], [4 x i8]* @.str.3, i64 0, i64 0), i32 %121)
  br label %123

123:                                              ; preds = %120, %118
  ret void
}

declare dso_local i32 @__isoc99_scanf(i8*, ...) #1

declare dso_local i32 @printf(i8*, ...) #1


!llvm.module.flags = !{!0}
!llvm.ident = !{!1}

!0 = !{i32 1, !"wchar_size", i32 4}
!1 = !{!"clang version 10.0.0-4ubuntu1 "}
